target datalayout = "e-m:e-p270:32:32-p271:32:32-p272:64:64-i64:64-i128:128-f80:128-n8:16:32:64-S128"
target triple = "x86_64-pc-linux-gnu"

@.str = private unnamed_addr constant [33 x i8] c"../openssl/crypto/pem/pem_pkey.c\00", align 1
@__func__.PEM_write_PrivateKey_ex = private unnamed_addr constant [24 x i8] c"PEM_write_PrivateKey_ex\00", align 1

; Function Attrs: nounwind uwtable
define i32 @PEM_write_PrivateKey_ex(ptr noundef %0, ptr noundef %1, ptr noundef %2, ptr noundef %3, i32 noundef %4, ptr noundef %5, ptr noundef %6, ptr noundef %7, ptr noundef %8) #0 {
  %10 = alloca i32, align 4
  %11 = alloca ptr, align 8
  %12 = alloca ptr, align 8
  %13 = alloca ptr, align 8
  %14 = alloca ptr, align 8
  %15 = alloca i32, align 4
  %16 = alloca ptr, align 8
  %17 = alloca ptr, align 8
  %18 = alloca ptr, align 8
  %19 = alloca ptr, align 8
  %20 = alloca ptr, align 8
  %21 = alloca i32, align 4
  %22 = alloca i32, align 4
  store ptr %0, ptr %11, align 8, !tbaa !19
  store ptr %1, ptr %12, align 8, !tbaa !17
  store ptr %2, ptr %13, align 8, !tbaa !21
  store ptr %3, ptr %14, align 8, !tbaa !13
  store i32 %4, ptr %15, align 4, !tbaa !15
  store ptr %5, ptr %16, align 8, !tbaa !10
  store ptr %6, ptr %17, align 8, !tbaa !10
  store ptr %7, ptr %18, align 8, !tbaa !11
  store ptr %8, ptr %19, align 8, !tbaa !13
  call void @llvm.lifetime.start.p0(i64 8, ptr %20) #6
  call void @llvm.lifetime.start.p0(i64 4, ptr %21) #6
  %23 = load ptr, ptr %11, align 8, !tbaa !19
  %24 = call ptr @BIO_new_fp(ptr noundef %23, i32 noundef 0)
  store ptr %24, ptr %20, align 8, !tbaa !3
  %25 = icmp eq ptr %24, null
  br i1 %25, label %26, label %27

26:                                               ; preds = %9
  call void @ERR_new()
  call void @ERR_set_debug(ptr noundef @.str, i32 noundef 436, ptr noundef @__func__.PEM_write_PrivateKey_ex)
  call void (i32, i32, ptr, ...) @ERR_set_error(i32 noundef 9, i32 noundef 524295, ptr noundef null)
  store i32 0, ptr %10, align 4
  store i32 1, ptr %22, align 4
  br label %41

27:                                               ; preds = %9
  %28 = load ptr, ptr %20, align 8, !tbaa !3
  %29 = load ptr, ptr %12, align 8, !tbaa !17
  %30 = load ptr, ptr %13, align 8, !tbaa !21
  %31 = load ptr, ptr %14, align 8, !tbaa !13
  %32 = load i32, ptr %15, align 4, !tbaa !15
  %33 = load ptr, ptr %16, align 8, !tbaa !10
  %34 = load ptr, ptr %17, align 8, !tbaa !10
  %35 = load ptr, ptr %18, align 8, !tbaa !11
  %36 = load ptr, ptr %19, align 8, !tbaa !13
  %37 = call i32 @PEM_write_bio_PrivateKey_ex(ptr noundef %28, ptr noundef %29, ptr noundef %30, ptr noundef %31, i32 noundef %32, ptr noundef %33, ptr noundef %34, ptr noundef %35, ptr noundef %36)
  store i32 %37, ptr %21, align 4, !tbaa !15
  %38 = load ptr, ptr %20, align 8, !tbaa !3
  %39 = call i32 @BIO_free(ptr noundef %38)
  %40 = load i32, ptr %21, align 4, !tbaa !15
  store i32 %40, ptr %10, align 4
  store i32 1, ptr %22, align 4
  br label %41

41:                                               ; preds = %27, %26
  call void @llvm.lifetime.end.p0(i64 4, ptr %21) #6
  call void @llvm.lifetime.end.p0(i64 8, ptr %20) #6
  %42 = load i32, ptr %10, align 4
  ret i32 %42
}

; Function Attrs: nounwind uwtable
define i32 @PEM_write_PrivateKey(ptr noundef %0, ptr noundef %1, ptr noundef %2, ptr noundef %3, i32 noundef %4, ptr noundef %5, ptr noundef %6) #0 {
  %8 = alloca ptr, align 8
  %9 = alloca ptr, align 8
  %10 = alloca ptr, align 8
  %11 = alloca ptr, align 8
  %12 = alloca i32, align 4
  %13 = alloca ptr, align 8
  %14 = alloca ptr, align 8
  store ptr %0, ptr %8, align 8, !tbaa !19
  store ptr %1, ptr %9, align 8, !tbaa !17
  store ptr %2, ptr %10, align 8, !tbaa !21
  store ptr %3, ptr %11, align 8, !tbaa !13
  store i32 %4, ptr %12, align 4, !tbaa !15
  store ptr %5, ptr %13, align 8, !tbaa !10
  store ptr %6, ptr %14, align 8, !tbaa !10
  %15 = load ptr, ptr %8, align 8, !tbaa !19
  %16 = load ptr, ptr %9, align 8, !tbaa !17
  %17 = load ptr, ptr %10, align 8, !tbaa !21
  %18 = load ptr, ptr %11, align 8, !tbaa !13
  %19 = load i32, ptr %12, align 4, !tbaa !15
  %20 = load ptr, ptr %13, align 8, !tbaa !10
  %21 = load ptr, ptr %14, align 8, !tbaa !10
  %22 = call i32 @PEM_write_PrivateKey_ex(ptr noundef %15, ptr noundef %16, ptr noundef %17, ptr noundef %18, i32 noundef %19, ptr noundef %20, ptr noundef %21, ptr noundef null, ptr noundef null)
  ret i32 %22
}