; Function Attrs: nounwind uwtable
define i32 @PEM_write_PrivateKey(ptr noundef %0, ptr noundef %1, ptr noundef %2, ptr noundef %3, i32 noundef %4, ptr noundef %5, ptr noundef %6) local_unnamed_addr #0 {
  %8 = tail call ptr @BIO_new_fp(ptr noundef %0, i32 noundef 0) #6
  %9 = icmp eq ptr %8, null
  br i1 %9, label %10, label %11

10:                                               ; preds = %7
  tail call void @ERR_new() #6
  tail call void @ERR_set_debug(ptr noundef nonnull @.str, i32 noundef 436, ptr noundef nonnull @__func__.PEM_write_PrivateKey_ex) #6
  tail call void (i32, i32, ptr, ...) @ERR_set_error(i32 noundef 9, i32 noundef 524295, ptr noundef null) #6
  br label %PEM_write_PrivateKey_ex.exit

11:                                               ; preds = %7
  %12 = tail call i32 @PEM_write_bio_PrivateKey_ex(ptr noundef nonnull %8, ptr noundef %1, ptr noundef %2, ptr noundef %3, i32 noundef %4, ptr noundef %5, ptr noundef %6, ptr poison, ptr noundef null)
  %13 = tail call i32 @BIO_free(ptr noundef nonnull %8) #6
  br label %PEM_write_PrivateKey_ex.exit

PEM_write_PrivateKey_ex.exit:                     ; preds = %10, %11
  %.0.i = phi i32 [ 0, %10 ], [ %12, %11 ]
  ret i32 %.0.i
}